target datalayout = "e-m:e-p270:32:32-p271:32:32-p272:64:64-i64:64-i128:128-f80:128-n8:16:32:64-S128"
target triple = "x86_64-pc-linux-gnu"

%struct.TupleTableSlotOps = type { i64, ptr, ptr, ptr, ptr, ptr, ptr, ptr, ptr, ptr, ptr, ptr, ptr }
%struct.NestLoopState = type { %struct.JoinState, i8, i8, ptr }
%struct.JoinState = type { %struct.PlanState, i32, i8, ptr }
%struct.PlanState = type { i32, ptr, ptr, ptr, ptr, ptr, ptr, ptr, ptr, ptr, ptr, ptr, ptr, ptr, ptr, ptr, ptr, ptr, i8, ptr, ptr, ptr, ptr, ptr, i8, i8, i8, i8, i8, i8, i8, i8 }
%struct.Plan = type { i32, i32, double, double, double, i32, i8, i8, i8, i32, ptr, ptr, ptr, ptr, ptr, ptr, ptr }
%struct.NestLoop = type { %struct.Join, ptr }
%struct.Join = type { %struct.Plan, i32, i8, ptr }
%struct.Node = type { i32 }

@TTSOpsVirtual = external constant %struct.TupleTableSlotOps, align 8
@.str = private unnamed_addr constant [27 x i8] c"unrecognized join type: %d\00", align 1
@.str.1 = private unnamed_addr constant [15 x i8] c"nodeNestloop.c\00", align 1
@__func__.ExecInitNestLoop = private unnamed_addr constant [17 x i8] c"ExecInitNestLoop\00", align 1

; Function Attrs: inlinehint nounwind uwtable
define internal ptr @newNode(i64 noundef %0, i32 noundef %1) #2 {
  %3 = alloca i64, align 8
  %4 = alloca i32, align 4
  %5 = alloca ptr, align 8
  store i64 %0, ptr %3, align 8
  store i32 %1, ptr %4, align 4
  call void @llvm.lifetime.start.p0(i64 8, ptr %5) #7
  %6 = load i64, ptr %3, align 8
  %7 = call ptr @palloc0(i64 noundef %6)
  store ptr %7, ptr %5, align 8
  %8 = load i32, ptr %4, align 4
  %9 = load ptr, ptr %5, align 8
  %10 = getelementptr inbounds nuw %struct.Node, ptr %9, i32 0, i32 0
  store i32 %8, ptr %10, align 4
  %11 = load ptr, ptr %5, align 8
  call void @llvm.lifetime.end.p0(i64 8, ptr %5) #7
  ret ptr %11
}

; Function Attrs: nounwind uwtable
define dso_local ptr @ExecInitNestLoop(ptr noundef %0, ptr noundef %1, i32 noundef %2) #0 {
  %4 = alloca ptr, align 8
  %5 = alloca ptr, align 8
  %6 = alloca i32, align 4
  %7 = alloca ptr, align 8
  store ptr %0, ptr %4, align 8
  store ptr %1, ptr %5, align 8
  store i32 %2, ptr %6, align 4
  call void @llvm.lifetime.start.p0(i64 8, ptr %7) #7
  %8 = call ptr @newNode(i64 noundef 232, i32 noundef 420)
  store ptr %8, ptr %7, align 8
  %9 = load ptr, ptr %4, align 8
  %10 = load ptr, ptr %7, align 8
  %11 = getelementptr inbounds nuw %struct.NestLoopState, ptr %10, i32 0, i32 0
  %12 = getelementptr inbounds nuw %struct.JoinState, ptr %11, i32 0, i32 0
  %13 = getelementptr inbounds nuw %struct.PlanState, ptr %12, i32 0, i32 1
  store ptr %9, ptr %13, align 8
  %14 = load ptr, ptr %5, align 8
  %15 = load ptr, ptr %7, align 8
  %16 = getelementptr inbounds nuw %struct.NestLoopState, ptr %15, i32 0, i32 0
  %17 = getelementptr inbounds nuw %struct.JoinState, ptr %16, i32 0, i32 0
  %18 = getelementptr inbounds nuw %struct.PlanState, ptr %17, i32 0, i32 2
  store ptr %14, ptr %18, align 8
  %19 = load ptr, ptr %7, align 8
  %20 = getelementptr inbounds nuw %struct.NestLoopState, ptr %19, i32 0, i32 0
  %21 = getelementptr inbounds nuw %struct.JoinState, ptr %20, i32 0, i32 0
  %22 = getelementptr inbounds nuw %struct.PlanState, ptr %21, i32 0, i32 3
  store ptr @ExecNestLoop, ptr %22, align 8
  %23 = load ptr, ptr %5, align 8
  %24 = load ptr, ptr %7, align 8
  %25 = getelementptr inbounds nuw %struct.NestLoopState, ptr %24, i32 0, i32 0
  %26 = getelementptr inbounds nuw %struct.JoinState, ptr %25, i32 0, i32 0
  call void @ExecAssignExprContext(ptr noundef %23, ptr noundef %26)
  %27 = load ptr, ptr %4, align 8
  %28 = getelementptr inbounds nuw %struct.Plan, ptr %27, i32 0, i32 12
  %29 = load ptr, ptr %28, align 8
  %30 = load ptr, ptr %5, align 8
  %31 = load i32, ptr %6, align 4
  %32 = call ptr @ExecInitNode(ptr noundef %29, ptr noundef %30, i32 noundef %31)
  %33 = load ptr, ptr %7, align 8
  %34 = getelementptr inbounds nuw %struct.PlanState, ptr %33, i32 0, i32 9
  store ptr %32, ptr %34, align 8
  %35 = load ptr, ptr %4, align 8
  %36 = getelementptr inbounds nuw %struct.NestLoop, ptr %35, i32 0, i32 1
  %37 = load ptr, ptr %36, align 8
  %38 = icmp eq ptr %37, null
  br i1 %38, label %39, label %42

39:                                               ; preds = %3
  %40 = load i32, ptr %6, align 4
  %41 = or i32 %40, 4
  store i32 %41, ptr %6, align 4
  br label %45

42:                                               ; preds = %3
  %43 = load i32, ptr %6, align 4
  %44 = and i32 %43, -5
  store i32 %44, ptr %6, align 4
  br label %45

45:                                               ; preds = %42, %39
  %46 = load ptr, ptr %4, align 8
  %47 = getelementptr inbounds nuw %struct.Plan, ptr %46, i32 0, i32 13
  %48 = load ptr, ptr %47, align 8
  %49 = load ptr, ptr %5, align 8
  %50 = load i32, ptr %6, align 4
  %51 = call ptr @ExecInitNode(ptr noundef %48, ptr noundef %49, i32 noundef %50)
  %52 = load ptr, ptr %7, align 8
  %53 = getelementptr inbounds nuw %struct.PlanState, ptr %52, i32 0, i32 10
  store ptr %51, ptr %53, align 8
  %54 = load ptr, ptr %7, align 8
  %55 = getelementptr inbounds nuw %struct.NestLoopState, ptr %54, i32 0, i32 0
  %56 = getelementptr inbounds nuw %struct.JoinState, ptr %55, i32 0, i32 0
  call void @ExecInitResultTupleSlotTL(ptr noundef %56, ptr noundef @TTSOpsVirtual)
  %57 = load ptr, ptr %7, align 8
  %58 = getelementptr inbounds nuw %struct.NestLoopState, ptr %57, i32 0, i32 0
  %59 = getelementptr inbounds nuw %struct.JoinState, ptr %58, i32 0, i32 0
  call void @ExecAssignProjectionInfo(ptr noundef %59, ptr noundef null)
  %60 = load ptr, ptr %4, align 8
  %61 = getelementptr inbounds nuw %struct.NestLoop, ptr %60, i32 0, i32 0
  %62 = getelementptr inbounds nuw %struct.Join, ptr %61, i32 0, i32 0
  %63 = getelementptr inbounds nuw %struct.Plan, ptr %62, i32 0, i32 11
  %64 = load ptr, ptr %63, align 8
  %65 = load ptr, ptr %7, align 8
  %66 = call ptr @ExecInitQual(ptr noundef %64, ptr noundef %65)
  %67 = load ptr, ptr %7, align 8
  %68 = getelementptr inbounds nuw %struct.NestLoopState, ptr %67, i32 0, i32 0
  %69 = getelementptr inbounds nuw %struct.JoinState, ptr %68, i32 0, i32 0
  %70 = getelementptr inbounds nuw %struct.PlanState, ptr %69, i32 0, i32 8
  store ptr %66, ptr %70, align 8
  %71 = load ptr, ptr %4, align 8
  %72 = getelementptr inbounds nuw %struct.NestLoop, ptr %71, i32 0, i32 0
  %73 = getelementptr inbounds nuw %struct.Join, ptr %72, i32 0, i32 1
  %74 = load i32, ptr %73, align 8
  %75 = load ptr, ptr %7, align 8
  %76 = getelementptr inbounds nuw %struct.NestLoopState, ptr %75, i32 0, i32 0
  %77 = getelementptr inbounds nuw %struct.JoinState, ptr %76, i32 0, i32 1
  store i32 %74, ptr %77, align 8
  %78 = load ptr, ptr %4, align 8
  %79 = getelementptr inbounds nuw %struct.NestLoop, ptr %78, i32 0, i32 0
  %80 = getelementptr inbounds nuw %struct.Join, ptr %79, i32 0, i32 3
  %81 = load ptr, ptr %80, align 8
  %82 = load ptr, ptr %7, align 8
  %83 = call ptr @ExecInitQual(ptr noundef %81, ptr noundef %82)
  %84 = load ptr, ptr %7, align 8
  %85 = getelementptr inbounds nuw %struct.NestLoopState, ptr %84, i32 0, i32 0
  %86 = getelementptr inbounds nuw %struct.JoinState, ptr %85, i32 0, i32 3
  store ptr %83, ptr %86, align 8
  %87 = load ptr, ptr %4, align 8
  %88 = getelementptr inbounds nuw %struct.NestLoop, ptr %87, i32 0, i32 0
  %89 = getelementptr inbounds nuw %struct.Join, ptr %88, i32 0, i32 2
  %90 = load i8, ptr %89, align 4, !range !4, !noundef !5
  %91 = trunc i8 %90 to i1
  br i1 %91, label %98, label %92

92:                                               ; preds = %45
  %93 = load ptr, ptr %4, align 8
  %94 = getelementptr inbounds nuw %struct.NestLoop, ptr %93, i32 0, i32 0
  %95 = getelementptr inbounds nuw %struct.Join, ptr %94, i32 0, i32 1
  %96 = load i32, ptr %95, align 8
  %97 = icmp eq i32 %96, 4
  br label %98

98:                                               ; preds = %92, %45
  %99 = phi i1 [ true, %45 ], [ %97, %92 ]
  %100 = load ptr, ptr %7, align 8
  %101 = getelementptr inbounds nuw %struct.NestLoopState, ptr %100, i32 0, i32 0
  %102 = getelementptr inbounds nuw %struct.JoinState, ptr %101, i32 0, i32 2
  %103 = zext i1 %99 to i8
  store i8 %103, ptr %102, align 4
  %104 = load ptr, ptr %4, align 8
  %105 = getelementptr inbounds nuw %struct.NestLoop, ptr %104, i32 0, i32 0
  %106 = getelementptr inbounds nuw %struct.Join, ptr %105, i32 0, i32 1
  %107 = load i32, ptr %106, align 8
  switch i32 %107, label %118 [
    i32 0, label %108
    i32 4, label %108
    i32 1, label %109
    i32 5, label %109
  ]

108:                                              ; preds = %98, %98
  br label %133

109:                                              ; preds = %98, %98
  %110 = load ptr, ptr %5, align 8
  %111 = load ptr, ptr %7, align 8
  %112 = getelementptr inbounds nuw %struct.PlanState, ptr %111, i32 0, i32 10
  %113 = load ptr, ptr %112, align 8
  %114 = call ptr @ExecGetResultType(ptr noundef %113)
  %115 = call ptr @ExecInitNullTupleSlot(ptr noundef %110, ptr noundef %114, ptr noundef @TTSOpsVirtual)
  %116 = load ptr, ptr %7, align 8
  %117 = getelementptr inbounds nuw %struct.NestLoopState, ptr %116, i32 0, i32 3
  store ptr %115, ptr %117, align 8
  br label %133

118:                                              ; preds = %98
  br label %119

119:                                              ; preds = %118
  br i1 true, label %120, label %122

120:                                              ; preds = %119
  %121 = call zeroext i1 @errstart_cold(i32 noundef 21, ptr noundef null) #8
  br i1 %121, label %124, label %130

122:                                              ; preds = %119
  %123 = call zeroext i1 @errstart(i32 noundef 21, ptr noundef null)
  br i1 %123, label %124, label %130

124:                                              ; preds = %122, %120
  %125 = load ptr, ptr %4, align 8
  %126 = getelementptr inbounds nuw %struct.NestLoop, ptr %125, i32 0, i32 0
  %127 = getelementptr inbounds nuw %struct.Join, ptr %126, i32 0, i32 1
  %128 = load i32, ptr %127, align 8
  %129 = call i32 (ptr, ...) @errmsg_internal(ptr noundef @.str, i32 noundef %128)
  call void @errfinish(ptr noundef @.str.1, i32 noundef 339, ptr noundef @__func__.ExecInitNestLoop)
  br label %130

130:                                              ; preds = %124, %122, %120
  unreachable

131:                                              ; No predecessors!
  br label %132

132:                                              ; preds = %131
  br label %133

133:                                              ; preds = %132, %109, %108
  %134 = load ptr, ptr %7, align 8
  %135 = getelementptr inbounds nuw %struct.NestLoopState, ptr %134, i32 0, i32 1
  store i8 1, ptr %135, align 8
  %136 = load ptr, ptr %7, align 8
  %137 = getelementptr inbounds nuw %struct.NestLoopState, ptr %136, i32 0, i32 2
  store i8 0, ptr %137, align 1
  %138 = load ptr, ptr %7, align 8
  call void @llvm.lifetime.end.p0(i64 8, ptr %7) #7
  ret ptr %138
}