; Function Attrs: nounwind uwtable
define dso_local noundef ptr @ExecInitNestLoop(ptr noundef %0, ptr noundef %1, i32 noundef %2) local_unnamed_addr #0 {
  %4 = tail call noundef ptr @palloc0(i64 noundef 232) #5
  store i32 420, ptr %4, align 4
  %5 = getelementptr inbounds nuw i8, ptr %4, i64 8
  store ptr %0, ptr %5, align 8
  %6 = getelementptr inbounds nuw i8, ptr %4, i64 16
  store ptr %1, ptr %6, align 8
  %7 = getelementptr inbounds nuw i8, ptr %4, i64 24
  store ptr @ExecNestLoop, ptr %7, align 8
  tail call void @ExecAssignExprContext(ptr noundef %1, ptr noundef nonnull %4) #5
  %8 = getelementptr inbounds nuw i8, ptr %0, i64 64
  %9 = load ptr, ptr %8, align 8
  %10 = tail call ptr @ExecInitNode(ptr noundef %9, ptr noundef %1, i32 noundef %2) #5
  %11 = getelementptr inbounds nuw i8, ptr %4, i64 72
  store ptr %10, ptr %11, align 8
  %12 = getelementptr inbounds nuw i8, ptr %0, i64 120
  %13 = load ptr, ptr %12, align 8
  %14 = icmp eq ptr %13, null
  %15 = and i32 %2, -5
  %masksel = select i1 %14, i32 4, i32 0
  %.0 = or disjoint i32 %masksel, %15
  %16 = getelementptr inbounds nuw i8, ptr %0, i64 72
  %17 = load ptr, ptr %16, align 8
  %18 = tail call ptr @ExecInitNode(ptr noundef %17, ptr noundef %1, i32 noundef %.0) #5
  %19 = getelementptr inbounds nuw i8, ptr %4, i64 80
  store ptr %18, ptr %19, align 8
  tail call void @ExecInitResultTupleSlotTL(ptr noundef nonnull %4, ptr noundef nonnull @TTSOpsVirtual) #5
  tail call void @ExecAssignProjectionInfo(ptr noundef nonnull %4, ptr noundef null) #5
  %20 = getelementptr inbounds nuw i8, ptr %0, i64 56
  %21 = load ptr, ptr %20, align 8
  %22 = tail call ptr @ExecInitQual(ptr noundef %21, ptr noundef nonnull %4) #5
  %23 = getelementptr inbounds nuw i8, ptr %4, i64 64
  store ptr %22, ptr %23, align 8
  %24 = getelementptr inbounds nuw i8, ptr %0, i64 104
  %25 = load i32, ptr %24, align 8
  %26 = getelementptr inbounds nuw i8, ptr %4, i64 200
  store i32 %25, ptr %26, align 8
  %27 = getelementptr inbounds nuw i8, ptr %0, i64 112
  %28 = load ptr, ptr %27, align 8
  %29 = tail call ptr @ExecInitQual(ptr noundef %28, ptr noundef nonnull %4) #5
  %30 = getelementptr inbounds nuw i8, ptr %4, i64 208
  store ptr %29, ptr %30, align 8
  %31 = getelementptr inbounds nuw i8, ptr %0, i64 108
  %32 = load i8, ptr %31, align 4, !range !4, !noundef !5
  %33 = trunc nuw i8 %32 to i1
  br i1 %33, label %38, label %34

34:                                               ; preds = %3
  %35 = load i32, ptr %24, align 8
  %36 = icmp eq i32 %35, 4
  %37 = zext i1 %36 to i8
  br label %38

38:                                               ; preds = %34, %3
  %39 = phi i8 [ 1, %3 ], [ %37, %34 ]
  %40 = getelementptr inbounds nuw i8, ptr %4, i64 204
  store i8 %39, ptr %40, align 4
  %41 = load i32, ptr %24, align 8
  switch i32 %41, label %47 [
    i32 0, label %51
    i32 4, label %51
    i32 1, label %42
    i32 5, label %42
  ]

42:                                               ; preds = %38, %38
  %43 = load ptr, ptr %19, align 8
  %44 = tail call ptr @ExecGetResultType(ptr noundef %43) #5
  %45 = tail call ptr @ExecInitNullTupleSlot(ptr noundef %1, ptr noundef %44, ptr noundef nonnull @TTSOpsVirtual) #5
  %46 = getelementptr inbounds nuw i8, ptr %4, i64 224
  store ptr %45, ptr %46, align 8
  br label %51

47:                                               ; preds = %38
  %48 = tail call zeroext i1 @errstart_cold(i32 noundef 21, ptr noundef null) #6
  tail call void @llvm.assume(i1 %48)
  %49 = load i32, ptr %24, align 8
  %50 = tail call i32 (ptr, ...) @errmsg_internal(ptr noundef nonnull @.str, i32 noundef %49) #5
  tail call void @errfinish(ptr noundef nonnull @.str.1, i32 noundef 339, ptr noundef nonnull @__func__.ExecInitNestLoop) #5
  unreachable

51:                                               ; preds = %38, %38, %42
  %52 = getelementptr inbounds nuw i8, ptr %4, i64 216
  store i8 1, ptr %52, align 8
  %53 = getelementptr inbounds nuw i8, ptr %4, i64 217
  store i8 0, ptr %53, align 1
  ret ptr %4
}